target datalayout = "e-m:e-p270:32:32-p271:32:32-p272:64:64-i64:64-i128:128-f80:128-n8:16:32:64-S128"
target triple = "x86_64-pc-linux-gnu"

%"class.llvm::ArrayRef" = type { ptr, i64 }

; Function Attrs: mustprogress nounwind uwtable
define linkonce_odr hidden void @_ZN4llvm8ArrayRefIPNS_8MetadataEEC2ESt9nullopt_t(ptr noundef nonnull align 8 dereferenceable(16) %0) unnamed_addr #1 comdat align 2 {
  %2 = alloca ptr, align 8
  store ptr %0, ptr %2, align 8
  %3 = load ptr, ptr %2, align 8
  %4 = getelementptr inbounds nuw %"class.llvm::ArrayRef", ptr %3, i32 0, i32 0
  store ptr null, ptr %4, align 8
  %5 = getelementptr inbounds nuw %"class.llvm::ArrayRef", ptr %3, i32 0, i32 1
  store i64 0, ptr %5, align 8
  ret void
}

; Function Attrs: mustprogress nounwind uwtable
define linkonce_odr noundef ptr @_ZN4llvm6MDNode9storeImplINS_10DIAssignIDEEEPT_S4_NS_8Metadata11StorageTypeE(ptr noundef %0, i32 noundef %1) #1 comdat align 2 {
  %3 = alloca ptr, align 8
  %4 = alloca i32, align 4
  store ptr %0, ptr %3, align 8
  store i32 %1, ptr %4, align 4
  %5 = load i32, ptr %4, align 4
  switch i32 %5, label %10 [
    i32 0, label %6
    i32 1, label %7
    i32 2, label %9
  ]

6:                                                ; preds = %2
  unreachable

7:                                                ; preds = %2
  %8 = load ptr, ptr %3, align 8
  call void @_ZN4llvm6MDNode22storeDistinctInContextEv(ptr noundef nonnull align 8 dereferenceable(16) %8)
  br label %10

9:                                                ; preds = %2
  br label %10

10:                                               ; preds = %9, %7, %2
  %11 = load ptr, ptr %3, align 8
  ret ptr %11
}

; Function Attrs: mustprogress nounwind uwtable
define linkonce_odr hidden void @_ZN4llvm10DIAssignIDC2ERNS_11LLVMContextENS_8Metadata11StorageTypeE(ptr noundef nonnull align 8 dereferenceable(16) %0, ptr noundef nonnull align 8 dereferenceable(8) %1, i32 noundef %2) unnamed_addr #1 comdat align 2 {
  %4 = alloca ptr, align 8
  %5 = alloca ptr, align 8
  %6 = alloca i32, align 4
  %7 = alloca %"class.llvm::ArrayRef", align 8
  %8 = alloca %"class.llvm::ArrayRef", align 8
  store ptr %0, ptr %4, align 8
  store ptr %1, ptr %5, align 8
  store i32 %2, ptr %6, align 4
  %9 = load ptr, ptr %4, align 8
  %10 = load ptr, ptr %5, align 8
  %11 = load i32, ptr %6, align 4
  call void @_ZN4llvm8ArrayRefIPNS_8MetadataEEC2ESt9nullopt_t(ptr noundef nonnull align 8 dereferenceable(16) %7)
  call void @_ZN4llvm8ArrayRefIPNS_8MetadataEEC2ESt9nullopt_t(ptr noundef nonnull align 8 dereferenceable(16) %8)
  %12 = getelementptr inbounds nuw { ptr, i64 }, ptr %7, i32 0, i32 0
  %13 = load ptr, ptr %12, align 8
  %14 = getelementptr inbounds nuw { ptr, i64 }, ptr %7, i32 0, i32 1
  %15 = load i64, ptr %14, align 8
  call void @_ZN4llvm6MDNodeC2ERNS_11LLVMContextEjNS_8Metadata11StorageTypeENS_8ArrayRefIPS3_EES7_(ptr noundef nonnull align 8 dereferenceable(16) %9, ptr noundef nonnull align 8 dereferenceable(8) %10, i32 noundef 30, i32 noundef %11, ptr %13, i64 %15, ptr noundef byval(%"class.llvm::ArrayRef") align 8 %8)
  ret void
}

; Function Attrs: mustprogress nounwind uwtable
define dso_local noundef ptr @_ZN4llvm10DIAssignID7getImplERNS_11LLVMContextENS_8Metadata11StorageTypeEb(ptr noundef nonnull align 8 dereferenceable(8) %0, i32 noundef %1, i1 noundef zeroext %2) #1 align 2 {
  %4 = alloca ptr, align 8
  %5 = alloca i32, align 4
  %6 = alloca i8, align 1
  store ptr %0, ptr %4, align 8
  store i32 %1, ptr %5, align 4
  %7 = zext i1 %2 to i8
  store i8 %7, ptr %6, align 1
  %8 = load i32, ptr %5, align 4
  %9 = call noundef ptr @_ZN4llvm6MDNodenwEmmNS_8Metadata11StorageTypeE(i64 noundef 16, i64 noundef 0, i32 noundef %8)
  %10 = load ptr, ptr %4, align 8
  %11 = load i32, ptr %5, align 4
  call void @_ZN4llvm10DIAssignIDC2ERNS_11LLVMContextENS_8Metadata11StorageTypeE(ptr noundef nonnull align 8 dereferenceable(16) %9, ptr noundef nonnull align 8 dereferenceable(8) %10, i32 noundef %11)
  %12 = load i32, ptr %5, align 4
  %13 = call noundef ptr @_ZN4llvm6MDNode9storeImplINS_10DIAssignIDEEEPT_S4_NS_8Metadata11StorageTypeE(ptr noundef %9, i32 noundef %12)
  ret ptr %13
}