; Function Attrs: mustprogress nounwind uwtable
define dso_local noundef ptr @_ZN4llvm10DIAssignID7getImplERNS_11LLVMContextENS_8Metadata11StorageTypeEb(ptr noundef nonnull align 8 dereferenceable(8) %0, i32 noundef %1, i1 noundef zeroext %2) local_unnamed_addr #0 align 2 {
  %4 = alloca %"class.llvm::ArrayRef", align 8
  %5 = tail call noundef ptr @_ZN4llvm6MDNodenwEmmNS_8Metadata11StorageTypeE(i64 noundef 16, i64 noundef 0, i32 noundef %1) #24
  call void @llvm.lifetime.start.p0(i64 16, ptr nonnull %4)
  call void @llvm.memset.p0.i64(ptr noundef nonnull align 8 dereferenceable(16) %4, i8 0, i64 16, i1 false)
  tail call void @_ZN4llvm6MDNodeC2ERNS_11LLVMContextEjNS_8Metadata11StorageTypeENS_8ArrayRefIPS3_EES7_(ptr noundef nonnull align 8 dereferenceable(16) %5, ptr noundef nonnull align 8 dereferenceable(8) %0, i32 noundef 30, i32 noundef %1, ptr null, i64 0, ptr noundef nonnull byval(%"class.llvm::ArrayRef") align 8 %4) #24
  call void @llvm.lifetime.end.p0(i64 16, ptr nonnull %4)
  %cond.i = icmp eq i32 %1, 1
  br i1 %cond.i, label %6, label %_ZN4llvm6MDNode9storeImplINS_10DIAssignIDEEEPT_S4_NS_8Metadata11StorageTypeE.exit

6:                                                ; preds = %3
  tail call void @_ZN4llvm6MDNode22storeDistinctInContextEv(ptr noundef nonnull align 8 dereferenceable(16) %5) #24
  br label %_ZN4llvm6MDNode9storeImplINS_10DIAssignIDEEEPT_S4_NS_8Metadata11StorageTypeE.exit

_ZN4llvm6MDNode9storeImplINS_10DIAssignIDEEEPT_S4_NS_8Metadata11StorageTypeE.exit: ; preds = %3, %6
  ret ptr %5
}